target datalayout = "e-m:e-p270:32:32-p271:32:32-p272:64:64-i64:64-i128:128-f80:128-n8:16:32:64-S128"
target triple = "x86_64-pc-linux-gnu"

%struct._zval_struct = type { %union._zend_value, %union.anon, %union.anon.2 }
%union._zend_value = type { i64 }
%union.anon = type { i32 }
%union.anon.2 = type { i32 }
%struct._zend_class_constant = type { %struct._zval_struct, ptr, ptr, ptr, %struct.zend_type }
%struct.zend_type = type { ptr, i32 }

; Function Attrs: nounwind uwtable
define dso_local zeroext i1 @zend_verify_const_access(ptr noundef %0, ptr noundef %1) #0 {
  %3 = alloca i1, align 1
  %4 = alloca ptr, align 8
  %5 = alloca ptr, align 8
  store ptr %0, ptr %4, align 8, !tbaa !62
  store ptr %1, ptr %5, align 8, !tbaa !64
  %6 = load ptr, ptr %4, align 8, !tbaa !62
  %7 = getelementptr inbounds nuw %struct._zend_class_constant, ptr %6, i32 0, i32 0
  %8 = getelementptr inbounds nuw %struct._zval_struct, ptr %7, i32 0, i32 2
  %9 = load i32, ptr %8, align 4, !tbaa !9
  %10 = and i32 %9, 1
  %11 = icmp ne i32 %10, 0
  br i1 %11, label %12, label %13

12:                                               ; preds = %2
  store i1 true, ptr %3, align 1
  br label %38

13:                                               ; preds = %2
  %14 = load ptr, ptr %4, align 8, !tbaa !62
  %15 = getelementptr inbounds nuw %struct._zend_class_constant, ptr %14, i32 0, i32 0
  %16 = getelementptr inbounds nuw %struct._zval_struct, ptr %15, i32 0, i32 2
  %17 = load i32, ptr %16, align 4, !tbaa !9
  %18 = and i32 %17, 4
  %19 = icmp ne i32 %18, 0
  br i1 %19, label %20, label %26

20:                                               ; preds = %13
  %21 = load ptr, ptr %4, align 8, !tbaa !62
  %22 = getelementptr inbounds nuw %struct._zend_class_constant, ptr %21, i32 0, i32 3
  %23 = load ptr, ptr %22, align 8, !tbaa !65
  %24 = load ptr, ptr %5, align 8, !tbaa !64
  %25 = icmp eq ptr %23, %24
  store i1 %25, ptr %3, align 1
  br label %38

26:                                               ; preds = %13
  %27 = load ptr, ptr %4, align 8, !tbaa !62
  %28 = getelementptr inbounds nuw %struct._zend_class_constant, ptr %27, i32 0, i32 0
  %29 = getelementptr inbounds nuw %struct._zval_struct, ptr %28, i32 0, i32 2
  %30 = load i32, ptr %29, align 4, !tbaa !9
  %31 = and i32 %30, 2
  %32 = icmp ne i32 %31, 0
  call void @llvm.assume(i1 %32)
  %33 = load ptr, ptr %4, align 8, !tbaa !62
  %34 = getelementptr inbounds nuw %struct._zend_class_constant, ptr %33, i32 0, i32 3
  %35 = load ptr, ptr %34, align 8, !tbaa !65
  %36 = load ptr, ptr %5, align 8, !tbaa !64
  %37 = call zeroext i1 @zend_check_protected(ptr noundef %35, ptr noundef %36)
  store i1 %37, ptr %3, align 1
  br label %38

38:                                               ; preds = %26, %20, %12
  %39 = load i1, ptr %3, align 1
  ret i1 %39
}