; Function Attrs: nounwind uwtable
define dso_local zeroext i1 @zend_verify_const_access(ptr noundef readonly captures(none) %0, ptr noundef %1) local_unnamed_addr #0 {
  %3 = getelementptr inbounds nuw i8, ptr %0, i64 12
  %4 = load i32, ptr %3, align 4, !tbaa !4
  %5 = and i32 %4, 1
  %.not = icmp eq i32 %5, 0
  br i1 %.not, label %6, label %18

6:                                                ; preds = %2
  %7 = and i32 %4, 4
  %.not8 = icmp eq i32 %7, 0
  br i1 %.not8, label %12, label %8

8:                                                ; preds = %6
  %9 = getelementptr inbounds nuw i8, ptr %0, i64 32
  %10 = load ptr, ptr %9, align 8, !tbaa !55
  %11 = icmp eq ptr %10, %1
  br label %18

12:                                               ; preds = %6
  %13 = and i32 %4, 2
  %14 = icmp ne i32 %13, 0
  tail call void @llvm.assume(i1 %14)
  %15 = getelementptr inbounds nuw i8, ptr %0, i64 32
  %16 = load ptr, ptr %15, align 8, !tbaa !55
  %17 = tail call zeroext i1 @zend_check_protected(ptr noundef %16, ptr noundef %1) #11
  br label %18

18:                                               ; preds = %2, %12, %8
  %.0 = phi i1 [ %11, %8 ], [ %17, %12 ], [ true, %2 ]
  ret i1 %.0
}